; Function Attrs: mustprogress uwtable
define void @_ZN6google8protobuf10TextFormat7Printer24SetUseUtf8StringEscapingEb(ptr nocapture noundef nonnull align 8 dereferenceable(112) %this, i1 noundef zeroext %as_utf8) local_unnamed_addr #4 align 2 personality ptr @__gxx_personality_v0 {
entry:
  %call = tail call noalias noundef nonnull dereferenceable(8) ptr @_Znwm(i64 noundef 8) #37
  %. = select i1 %as_utf8, ptr getelementptr inbounds ({ [19 x ptr] }, ptr @_ZTVN6google8protobuf10TextFormat7Printer33FastFieldValuePrinterUtf8EscapingE, i64 0, i32 0, i64 2), ptr getelementptr inbounds ({ [19 x ptr] }, ptr @_ZTVN6google8protobuf10TextFormat7Printer28DebugStringFieldValuePrinterE, i64 0, inrange i32 0, i64 2)
  store ptr %., ptr %call, align 8
  %default_field_value_printer_.i = getelementptr inbounds i8, ptr %this, i64 32
  %0 = load ptr, ptr %default_field_value_printer_.i, align 8
  store ptr %call, ptr %default_field_value_printer_.i, align 8
  %tobool.not.i.i.i = icmp eq ptr %0, null
  br i1 %tobool.not.i.i.i, label %_ZN6google8protobuf10TextFormat7Printer27SetDefaultFieldValuePrinterEPKNS1_21FastFieldValuePrinterE.exit, label %_ZNKSt14default_deleteIKN6google8protobuf10TextFormat21FastFieldValuePrinterEEclEPS4_.exit.i.i.i

_ZNKSt14default_deleteIKN6google8protobuf10TextFormat21FastFieldValuePrinterEEclEPS4_.exit.i.i.i: ; preds = %entry
  %vtable.i.i.i.i = load ptr, ptr %0, align 8
  %vfn.i.i.i.i = getelementptr inbounds i8, ptr %vtable.i.i.i.i, i64 8
  %1 = load ptr, ptr %vfn.i.i.i.i, align 8
  tail call void %1(ptr noundef nonnull align 8 dereferenceable(8) %0) #34
  br label %_ZN6google8protobuf10TextFormat7Printer27SetDefaultFieldValuePrinterEPKNS1_21FastFieldValuePrinterE.exit

_ZN6google8protobuf10TextFormat7Printer27SetDefaultFieldValuePrinterEPKNS1_21FastFieldValuePrinterE.exit: ; preds = %entry, %_ZNKSt14default_deleteIKN6google8protobuf10TextFormat21FastFieldValuePrinterEEclEPS4_.exit.i.i.i
  ret void
}